target datalayout = "e-m:e-p270:32:32-p271:32:32-p272:64:64-i64:64-i128:128-f80:128-n8:16:32:64-S128"
target triple = "x86_64-pc-linux-gnu"

%"struct.boost::urls::url_base::op_t" = type { ptr, ptr, ptr, ptr }
%"class.boost::core::basic_string_view" = type { ptr, i64 }
%"class.boost::urls::url_view_base" = type { [8 x i8], %"struct.boost::urls::detail::url_impl", ptr }
%"struct.boost::urls::detail::url_impl" = type <{ ptr, [8 x i64], [7 x i64], i64, i64, [16 x i8], i16, [2 x i8], i32, i16, i8, [5 x i8] }>
%"class.boost::urls::detail::printed" = type { i8, [5 x i8] }

@_ZN5boost4urls8url_base4op_tD1Ev = unnamed_addr alias void (ptr), ptr @_ZN5boost4urls8url_base4op_tD2Ev
@_ZN5boost4urls8url_base4op_tC1ERS1_PNS_4core17basic_string_viewIcEES7_ = unnamed_addr alias void (ptr, ptr, ptr, ptr), ptr @_ZN5boost4urls8url_base4op_tC2ERS1_PNS_4core17basic_string_viewIcEES7_

; Function Attrs: mustprogress nounwind uwtable
define linkonce_odr hidden void @_ZN5boost4core17basic_string_viewIcEC2EPKcm(ptr noundef nonnull align 8 dereferenceable(16) %0, ptr noundef %1, i64 noundef %2) unnamed_addr #2 comdat align 2 {
  %4 = alloca ptr, align 8
  %5 = alloca ptr, align 8
  %6 = alloca i64, align 8
  store ptr %0, ptr %4, align 8, !tbaa !7
  store ptr %1, ptr %5, align 8, !tbaa !7
  store i64 %2, ptr %6, align 8, !tbaa !21
  %7 = load ptr, ptr %4, align 8
  %8 = getelementptr inbounds nuw %"class.boost::core::basic_string_view", ptr %7, i32 0, i32 0
  %9 = load ptr, ptr %5, align 8, !tbaa !7
  store ptr %9, ptr %8, align 8, !tbaa !58
  %10 = getelementptr inbounds nuw %"class.boost::core::basic_string_view", ptr %7, i32 0, i32 1
  %11 = load i64, ptr %6, align 8, !tbaa !21
  store i64 %11, ptr %10, align 8, !tbaa !60
  ret void
}

; Function Attrs: mustprogress nounwind uwtable
define linkonce_odr hidden void @_ZN5boost4urls6detail7printedItEC2Et(ptr noundef nonnull align 1 dereferenceable(6) %0, i16 noundef zeroext %1) unnamed_addr #2 comdat align 2 {
  %3 = alloca ptr, align 8
  %4 = alloca i16, align 2
  %5 = alloca ptr, align 8
  store ptr %0, ptr %3, align 8, !tbaa !7
  store i16 %1, ptr %4, align 2, !tbaa !87
  %6 = load ptr, ptr %3, align 8
  call void @llvm.lifetime.start.p0(i64 8, ptr %5) #9
  %7 = getelementptr inbounds nuw %"class.boost::urls::detail::printed", ptr %6, i32 0, i32 1
  %8 = getelementptr inbounds [5 x i8], ptr %7, i64 0, i64 0
  %9 = getelementptr inbounds nuw i8, ptr %8, i64 5
  store ptr %9, ptr %5, align 8, !tbaa !7
  %10 = load i16, ptr %4, align 2, !tbaa !87
  %11 = zext i16 %10 to i32
  %12 = icmp eq i32 %11, 0
  br i1 %12, label %13, label %17

13:                                               ; preds = %2
  %14 = load ptr, ptr %5, align 8, !tbaa !7
  %15 = getelementptr inbounds i8, ptr %14, i32 -1
  store ptr %15, ptr %5, align 8, !tbaa !7
  store i8 48, ptr %15, align 1, !tbaa !32
  %16 = getelementptr inbounds nuw %"class.boost::urls::detail::printed", ptr %6, i32 0, i32 0
  store i8 1, ptr %16, align 1, !tbaa !89
  br label %44

17:                                               ; preds = %2
  br label %18

18:                                               ; preds = %22, %17
  %19 = load i16, ptr %4, align 2, !tbaa !87
  %20 = zext i16 %19 to i32
  %21 = icmp sgt i32 %20, 0
  br i1 %21, label %22, label %34

22:                                               ; preds = %18
  %23 = load i16, ptr %4, align 2, !tbaa !87
  %24 = zext i16 %23 to i32
  %25 = srem i32 %24, 10
  %26 = add nsw i32 48, %25
  %27 = trunc i32 %26 to i8
  %28 = load ptr, ptr %5, align 8, !tbaa !7
  %29 = getelementptr inbounds i8, ptr %28, i32 -1
  store ptr %29, ptr %5, align 8, !tbaa !7
  store i8 %27, ptr %29, align 1, !tbaa !32
  %30 = load i16, ptr %4, align 2, !tbaa !87
  %31 = zext i16 %30 to i32
  %32 = sdiv i32 %31, 10
  %33 = trunc i32 %32 to i16
  store i16 %33, ptr %4, align 2, !tbaa !87
  br label %18, !llvm.loop !192

34:                                               ; preds = %18
  %35 = load ptr, ptr %5, align 8, !tbaa !7
  %36 = getelementptr inbounds nuw %"class.boost::urls::detail::printed", ptr %6, i32 0, i32 1
  %37 = getelementptr inbounds [5 x i8], ptr %36, i64 0, i64 0
  %38 = ptrtoint ptr %35 to i64
  %39 = ptrtoint ptr %37 to i64
  %40 = sub i64 %38, %39
  %41 = sub i64 5, %40
  %42 = trunc i64 %41 to i8
  %43 = getelementptr inbounds nuw %"class.boost::urls::detail::printed", ptr %6, i32 0, i32 0
  store i8 %42, ptr %43, align 1, !tbaa !89
  br label %44

44:                                               ; preds = %34, %13
  call void @llvm.lifetime.end.p0(i64 8, ptr %5) #9
  ret void
}

; Function Attrs: mustprogress nounwind uwtable
define linkonce_odr hidden noundef ptr @_ZNK5boost4core17basic_string_viewIcE4dataEv(ptr noundef nonnull align 8 dereferenceable(16) %0) #2 comdat align 2 {
  %2 = alloca ptr, align 8
  store ptr %0, ptr %2, align 8, !tbaa !7
  %3 = load ptr, ptr %2, align 8
  %4 = getelementptr inbounds nuw %"class.boost::core::basic_string_view", ptr %3, i32 0, i32 0
  %5 = load ptr, ptr %4, align 8, !tbaa !58
  ret ptr %5
}

; Function Attrs: mustprogress nounwind uwtable
define linkonce_odr hidden noundef i64 @_ZNK5boost4core17basic_string_viewIcE4sizeEv(ptr noundef nonnull align 8 dereferenceable(16) %0) #2 comdat align 2 {
  %2 = alloca ptr, align 8
  store ptr %0, ptr %2, align 8, !tbaa !7
  %3 = load ptr, ptr %2, align 8
  %4 = getelementptr inbounds nuw %"class.boost::core::basic_string_view", ptr %3, i32 0, i32 1
  %5 = load i64, ptr %4, align 8, !tbaa !60
  ret i64 %5
}

; Function Attrs: mustprogress nounwind uwtable
define linkonce_odr hidden { ptr, i64 } @_ZNK5boost4urls6detail7printedItE6stringEv(ptr noundef nonnull align 1 dereferenceable(6) %0) #2 comdat align 2 {
  %2 = alloca %"class.boost::core::basic_string_view", align 8
  %3 = alloca ptr, align 8
  store ptr %0, ptr %3, align 8, !tbaa !7
  %4 = load ptr, ptr %3, align 8
  %5 = getelementptr inbounds nuw %"class.boost::urls::detail::printed", ptr %4, i32 0, i32 1
  %6 = getelementptr inbounds [5 x i8], ptr %5, i64 0, i64 0
  %7 = getelementptr inbounds nuw i8, ptr %6, i64 5
  %8 = getelementptr inbounds nuw %"class.boost::urls::detail::printed", ptr %4, i32 0, i32 0
  %9 = load i8, ptr %8, align 1, !tbaa !89
  %10 = sext i8 %9 to i32
  %11 = sext i32 %10 to i64
  %12 = sub i64 0, %11
  %13 = getelementptr inbounds i8, ptr %7, i64 %12
  %14 = getelementptr inbounds nuw %"class.boost::urls::detail::printed", ptr %4, i32 0, i32 0
  %15 = load i8, ptr %14, align 1, !tbaa !89
  %16 = sext i8 %15 to i64
  call void @_ZN5boost4core17basic_string_viewIcEC2EPKcm(ptr noundef nonnull align 8 dereferenceable(16) %2, ptr noundef %13, i64 noundef %16) #9
  %17 = load { ptr, i64 }, ptr %2, align 8
  ret { ptr, i64 } %17
}

; Function Attrs: mustprogress uwtable
define linkonce_odr hidden i48 @_ZN5boost4urls6detail12make_printedItEENS1_7printedIT_EES4_(i16 noundef zeroext %0) #5 comdat {
  %2 = alloca %"class.boost::urls::detail::printed", align 1
  %3 = alloca i16, align 2
  %4 = alloca i48, align 8
  store i16 %0, ptr %3, align 2, !tbaa !87
  %5 = load i16, ptr %3, align 2, !tbaa !87
  call void @_ZN5boost4urls6detail7printedItEC2Et(ptr noundef nonnull align 1 dereferenceable(6) %2, i16 noundef zeroext %5)
  call void @llvm.memcpy.p0.p0.i64(ptr align 8 %4, ptr align 1 %2, i64 6, i1 false)
  %6 = load i48, ptr %4, align 8
  ret i48 %6
}

; Function Attrs: mustprogress uwtable
define noundef nonnull align 8 dereferenceable(216) ptr @_ZN5boost4urls8url_base15set_port_numberEt(ptr noundef nonnull align 8 dereferenceable(216) %0, i16 noundef zeroext %1) #5 align 2 personality ptr @__gxx_personality_v0 {
  %3 = alloca ptr, align 8
  %4 = alloca i16, align 2
  %5 = alloca %"struct.boost::urls::url_base::op_t", align 8
  %6 = alloca %"class.boost::urls::detail::printed", align 1
  %7 = alloca ptr, align 8
  %8 = alloca i32, align 4
  %9 = alloca ptr, align 8
  %10 = alloca %"class.boost::core::basic_string_view", align 8
  %11 = alloca %"class.boost::core::basic_string_view", align 8
  %12 = alloca %"class.boost::core::basic_string_view", align 8
  store ptr %0, ptr %3, align 8, !tbaa !7
  store i16 %1, ptr %4, align 2, !tbaa !87
  %13 = load ptr, ptr %3, align 8
  call void @llvm.lifetime.start.p0(i64 32, ptr %5) #9
  call void @_ZN5boost4urls8url_base4op_tC1ERS1_PNS_4core17basic_string_viewIcEES7_(ptr noundef nonnull align 8 dereferenceable(32) %5, ptr noundef nonnull align 8 dereferenceable(216) %13, ptr noundef null, ptr noundef null) #9
  call void @llvm.lifetime.start.p0(i64 6, ptr %6) #9
  %14 = load i16, ptr %4, align 2, !tbaa !87
  %15 = invoke i48 @_ZN5boost4urls6detail12make_printedItEENS1_7printedIT_EES4_(i16 noundef zeroext %14)
          to label %16 unwind label %42

16:                                               ; preds = %2
  store i48 %15, ptr %6, align 1
  call void @llvm.lifetime.start.p0(i64 8, ptr %9) #9
  call void @llvm.lifetime.start.p0(i64 16, ptr %10) #9
  %17 = call { ptr, i64 } @_ZNK5boost4urls6detail7printedItE6stringEv(ptr noundef nonnull align 1 dereferenceable(6) %6) #9
  %18 = getelementptr inbounds nuw { ptr, i64 }, ptr %10, i32 0, i32 0
  %19 = extractvalue { ptr, i64 } %17, 0
  store ptr %19, ptr %18, align 8
  %20 = getelementptr inbounds nuw { ptr, i64 }, ptr %10, i32 0, i32 1
  %21 = extractvalue { ptr, i64 } %17, 1
  store i64 %21, ptr %20, align 8
  %22 = call noundef i64 @_ZNK5boost4core17basic_string_viewIcE4sizeEv(ptr noundef nonnull align 8 dereferenceable(16) %10) #9
  %23 = invoke noundef ptr @_ZN5boost4urls8url_base13set_port_implEmRNS1_4op_tE(ptr noundef nonnull align 8 dereferenceable(216) %13, i64 noundef %22, ptr noundef nonnull align 8 dereferenceable(32) %5)
          to label %24 unwind label %46

24:                                               ; preds = %16
  call void @llvm.lifetime.end.p0(i64 16, ptr %10) #9
  store ptr %23, ptr %9, align 8, !tbaa !7
  %25 = load ptr, ptr %9, align 8, !tbaa !7
  call void @llvm.lifetime.start.p0(i64 16, ptr %11) #9
  %26 = call { ptr, i64 } @_ZNK5boost4urls6detail7printedItE6stringEv(ptr noundef nonnull align 1 dereferenceable(6) %6) #9
  %27 = getelementptr inbounds nuw { ptr, i64 }, ptr %11, i32 0, i32 0
  %28 = extractvalue { ptr, i64 } %26, 0
  store ptr %28, ptr %27, align 8
  %29 = getelementptr inbounds nuw { ptr, i64 }, ptr %11, i32 0, i32 1
  %30 = extractvalue { ptr, i64 } %26, 1
  store i64 %30, ptr %29, align 8
  %31 = call noundef ptr @_ZNK5boost4core17basic_string_viewIcE4dataEv(ptr noundef nonnull align 8 dereferenceable(16) %11) #9
  call void @llvm.lifetime.start.p0(i64 16, ptr %12) #9
  %32 = call { ptr, i64 } @_ZNK5boost4urls6detail7printedItE6stringEv(ptr noundef nonnull align 1 dereferenceable(6) %6) #9
  %33 = getelementptr inbounds nuw { ptr, i64 }, ptr %12, i32 0, i32 0
  %34 = extractvalue { ptr, i64 } %32, 0
  store ptr %34, ptr %33, align 8
  %35 = getelementptr inbounds nuw { ptr, i64 }, ptr %12, i32 0, i32 1
  %36 = extractvalue { ptr, i64 } %32, 1
  store i64 %36, ptr %35, align 8
  %37 = call noundef i64 @_ZNK5boost4core17basic_string_viewIcE4sizeEv(ptr noundef nonnull align 8 dereferenceable(16) %12) #9
  call void @llvm.memcpy.p0.p0.i64(ptr align 1 %25, ptr align 1 %31, i64 %37, i1 false)
  call void @llvm.lifetime.end.p0(i64 16, ptr %12) #9
  call void @llvm.lifetime.end.p0(i64 16, ptr %11) #9
  %38 = load i16, ptr %4, align 2, !tbaa !87
  %39 = getelementptr inbounds i8, ptr %13, i64 8
  %40 = getelementptr inbounds nuw %"class.boost::urls::url_view_base", ptr %39, i32 0, i32 1
  %41 = getelementptr inbounds nuw %"struct.boost::urls::detail::url_impl", ptr %40, i32 0, i32 6
  store i16 %38, ptr %41, align 8, !tbaa !88
  call void @llvm.lifetime.end.p0(i64 8, ptr %9) #9
  call void @llvm.lifetime.end.p0(i64 6, ptr %6) #9
  call void @_ZN5boost4urls8url_base4op_tD1Ev(ptr noundef nonnull align 8 dereferenceable(32) %5) #9
  call void @llvm.lifetime.end.p0(i64 32, ptr %5) #9
  ret ptr %13

42:                                               ; preds = %2
  %43 = landingpad { ptr, i32 }
          cleanup
  %44 = extractvalue { ptr, i32 } %43, 0
  store ptr %44, ptr %7, align 8
  %45 = extractvalue { ptr, i32 } %43, 1
  store i32 %45, ptr %8, align 4
  br label %50

46:                                               ; preds = %16
  %47 = landingpad { ptr, i32 }
          cleanup
  %48 = extractvalue { ptr, i32 } %47, 0
  store ptr %48, ptr %7, align 8
  %49 = extractvalue { ptr, i32 } %47, 1
  store i32 %49, ptr %8, align 4
  call void @llvm.lifetime.end.p0(i64 16, ptr %10) #9
  call void @llvm.lifetime.end.p0(i64 8, ptr %9) #9
  br label %50

50:                                               ; preds = %46, %42
  call void @llvm.lifetime.end.p0(i64 6, ptr %6) #9
  call void @_ZN5boost4urls8url_base4op_tD1Ev(ptr noundef nonnull align 8 dereferenceable(32) %5) #9
  call void @llvm.lifetime.end.p0(i64 32, ptr %5) #9
  br label %51

51:                                               ; preds = %50
  %52 = load ptr, ptr %7, align 8
  %53 = load i32, ptr %8, align 4
  %54 = insertvalue { ptr, i32 } poison, ptr %52, 0
  %55 = insertvalue { ptr, i32 } %54, i32 %53, 1
  resume { ptr, i32 } %55
}