; Function Attrs: mustprogress uwtable
define noundef nonnull align 8 dereferenceable(216) ptr @_ZN5boost4urls8url_base15set_port_numberEt(ptr noundef nonnull returned align 8 dereferenceable(216) %0, i16 noundef zeroext %1) local_unnamed_addr #10 align 2 personality ptr @__gxx_personality_v0 {
  %3 = alloca %"class.boost::urls::detail::printed", align 8
  %4 = alloca %"struct.boost::urls::url_base::op_t", align 8
  %5 = alloca %"class.boost::urls::detail::printed", align 8
  call void @llvm.lifetime.start.p0(i64 32, ptr nonnull %4) #30
  call void @_ZN5boost4urls8url_base4op_tC1ERS1_PNS_4core17basic_string_viewIcEES7_(ptr noundef nonnull align 8 dereferenceable(32) %4, ptr noundef nonnull align 8 dereferenceable(216) %0, ptr noundef null, ptr noundef null) #30
  call void @llvm.lifetime.start.p0(i64 6, ptr nonnull %5) #30
  call void @llvm.lifetime.start.p0(i64 6, ptr nonnull %3)
  %6 = getelementptr inbounds nuw i8, ptr %3, i64 1
  %7 = icmp eq i16 %1, 0
  br i1 %7, label %9, label %.preheader.preheader.i.i

.preheader.preheader.i.i:                         ; preds = %2
  %8 = getelementptr inbounds nuw i8, ptr %3, i64 6
  br label %.preheader.i.i

9:                                                ; preds = %2
  %10 = getelementptr inbounds i8, ptr %3, i64 5
  store i8 48, ptr %10, align 1, !tbaa !25
  br label %21

.preheader.i.i:                                   ; preds = %.preheader.i.i, %.preheader.preheader.i.i
  %.010.i.i = phi ptr [ %14, %.preheader.i.i ], [ %8, %.preheader.preheader.i.i ]
  %.079.i.i = phi i16 [ %15, %.preheader.i.i ], [ %1, %.preheader.preheader.i.i ]
  %11 = urem i16 %.079.i.i, 10
  %12 = trunc nuw nsw i16 %11 to i8
  %13 = or disjoint i8 %12, 48
  %14 = getelementptr inbounds i8, ptr %.010.i.i, i64 -1
  store i8 %13, ptr %14, align 1, !tbaa !25
  %15 = udiv i16 %.079.i.i, 10
  %.not.i.i = icmp ult i16 %.079.i.i, 10
  br i1 %.not.i.i, label %16, label %.preheader.i.i, !llvm.loop !122

16:                                               ; preds = %.preheader.i.i
  %17 = ptrtoint ptr %14 to i64
  %18 = ptrtoint ptr %6 to i64
  %.neg.i.i = sub i64 %18, %17
  %19 = trunc i64 %.neg.i.i to i8
  %20 = add i8 %19, 5
  br label %21

21:                                               ; preds = %16, %9
  %storemerge.i.i = phi i8 [ %20, %16 ], [ 1, %9 ]
  store i8 %storemerge.i.i, ptr %3, align 8, !tbaa !123
  %.0.copyload.i = load i48, ptr %3, align 8
  call void @llvm.lifetime.end.p0(i64 6, ptr nonnull %3)
  store i48 %.0.copyload.i, ptr %5, align 8
  %22 = zext i48 %.0.copyload.i to i64
  %sext = shl i64 %22, 56
  %23 = ashr exact i64 %sext, 56
  %24 = invoke noundef ptr @_ZN5boost4urls8url_base13set_port_implEmRNS1_4op_tE(ptr noundef nonnull align 8 dereferenceable(216) %0, i64 noundef %23, ptr noundef nonnull align 8 dereferenceable(32) %4)
          to label %25 unwind label %30

25:                                               ; preds = %21
  %26 = getelementptr inbounds nuw i8, ptr %5, i64 6
  %27 = sub nsw i64 0, %23
  %28 = getelementptr inbounds i8, ptr %26, i64 %27
  call void @llvm.memcpy.p0.p0.i64(ptr nonnull align 1 %24, ptr nonnull align 1 %28, i64 %23, i1 false)
  %29 = getelementptr inbounds i8, ptr %0, i64 176
  store i16 %1, ptr %29, align 8, !tbaa !125
  call void @llvm.lifetime.end.p0(i64 6, ptr nonnull %5) #30
  call void @_ZN5boost4urls8url_base4op_tD1Ev(ptr noundef nonnull align 8 dereferenceable(32) %4) #30
  call void @llvm.lifetime.end.p0(i64 32, ptr nonnull %4) #30
  ret ptr %0

30:                                               ; preds = %21
  %31 = landingpad { ptr, i32 }
          cleanup
  call void @llvm.lifetime.end.p0(i64 6, ptr nonnull %5) #30
  call void @_ZN5boost4urls8url_base4op_tD1Ev(ptr noundef nonnull align 8 dereferenceable(32) %4) #30
  call void @llvm.lifetime.end.p0(i64 32, ptr nonnull %4) #30
  resume { ptr, i32 } %31
}